Certificate:
    Data:
        Version: 3 (0x2)
        Serial Number: 1 (0x1)
        Signature Algorithm: sha1WithRSAEncryption
        Issuer: C=US, ST=California, L=Palo Alto, O=VMWare, OU=Zimbra, CN=MyCA
        Validity
            Not Before: Apr  1 04:09:21 2011 GMT
            Not After : Mar 31 04:09:21 2012 GMT
        Subject: C=US, ST=California, L=Saratoga, O=Example Company, OU=Engineering, CN=user one/emailAddress=user1@phoebe.mbp
        Subject Public Key Info:
            Public Key Algorithm: rsaEncryption
                Public-Key: (2048 bit)
                Modulus:
                    00:bf:66:2b:93:c6:a5:a4:7a:98:ad:06:c8:cd:97:
                    e0:9e:72:de:f7:8d:86:97:6e:6f:82:0d:40:89:83:
                    93:a2:e8:7a:69:91:7a:a6:67:b4:d2:99:09:17:01:
                    98:98:79:e6:36:61:de:64:0d:0a:65:88:f5:58:f5:
                    ee:4b:2a:b4:64:e6:71:53:66:ba:62:32:55:0f:d7:
                    d8:2a:54:80:4e:8b:12:b3:9f:4f:11:b3:f2:63:eb:
                    15:c9:fc:09:16:21:70:34:85:e3:54:c4:d0:b0:05:
                    56:bd:94:ef:24:37:0a:81:4c:e6:39:1c:35:a5:9e:
                    fc:30:be:dd:d5:71:29:cd:57:41:1b:6a:0a:d7:cf:
                    23:86:d4:8e:df:86:7c:d1:a4:47:f1:c2:02:e1:be:
                    94:69:65:f5:99:8b:5d:a0:b1:95:c9:69:66:4c:94:
                    9e:bb:f6:ea:04:f7:03:e2:fe:55:df:c9:e8:fb:01:
                    7e:cf:cd:63:8b:61:77:55:1d:84:f8:1f:af:28:b6:
                    9c:58:90:62:83:0d:08:fa:7c:4a:0e:da:84:a4:fc:
                    6c:88:77:b9:06:14:0d:3d:c0:c1:55:0c:0b:21:95:
                    b8:7e:e2:a3:a5:d5:52:a3:55:81:e2:26:62:d9:a7:
                    e0:a2:69:aa:84:bb:04:06:01:24:cf:17:b1:68:c0:
                    ac:0f
                Exponent: 65537 (0x10001)
        X509v3 extensions:
            X509v3 Basic Constraints: 
                CA:FALSE
            Netscape Comment: 
                OpenSSL Generated Certificate
            X509v3 Subject Key Identifier: 
                04:59:6C:64:D6:9A:07:B2:C4:00:77:1E:C8:15:FE:0D:64:28:6C:A8
            X509v3 Authority Key Identifier: 
                DirName:/C=US/ST=California/L=Palo Alto/O=VMWare/OU=Zimbra/CN=MyCA
                serial:AE:A3:43:E9:D5:26:78:C5

    Signature Algorithm: sha1WithRSAEncryption
        2f:91:7f:8d:87:44:87:9d:01:52:f1:16:5a:41:2d:e8:75:24:
        a3:74:bd:12:d6:44:91:74:03:06:53:11:f3:d4:50:5b:27:df:
        09:fc:0b:fd:94:eb:ad:31:a3:02:d9:89:30:20:35:3b:99:a0:
        32:41:d0:95:d7:db:d9:b6:1d:93:52:8f:94:10:0d:f7:14:84:
        f8:83:9d:c4:8b:2f:63:c7:a1:c1:34:96:fb:ae:f7:42:13:12:
        e3:d3:b6:0e:6a:80:b0:86:82:28:d4:ed:ac:65:67:aa:3f:44:
        90:a2:37:51:fe:c3:aa:51:84:31:f1:5d:42:c7:13:d9:ce:c6:
        1f:b6:7f:76:74:58:9f:cf:b9:fe:f1:a9:58:ad:4b:7c:80:f8:
        4d:bc:8b:81:ab:da:db:e4:59:4d:fa:0e:14:9c:68:51:e8:ff:
        cb:0b:cd:fe:b4:69:29:52:5c:85:0b:52:21:6b:3a:01:12:b4:
        3a:6e:46:a4:75:e6:95:d5:b6:37:73:aa:4b:81:cd:8a:cd:f8:
        22:6b:26:af:d2:2d:96:11:db:ee:34:b8:99:e5:92:dd:bb:fd:
        5d:b8:b7:d4:2e:87:15:e2:40:3a:8e:0a:ec:c9:0d:46:d7:19:
        6d:02:d6:2f:5f:75:f4:9d:cc:fe:32:21:f6:5a:11:95:90:b5:
        95:2b:e4:4b
-----BEGIN CERTIFICATE-----
MIIEXDCCA0SgAwIBAgIBATANBgkqhkiG9w0BAQUFADBnMQswCQYDVQQGEwJVUzET
MBEGA1UECAwKQ2FsaWZvcm5pYTESMBAGA1UEBwwJUGFsbyBBbHRvMQ8wDQYDVQQK
DAZWTVdhcmUxDzANBgNVBAsMBlppbWJyYTENMAsGA1UEAwwETXlDQTAeFw0xMTA0
MDEwNDA5MjFaFw0xMjAzMzEwNDA5MjFaMIGZMQswCQYDVQQGEwJVUzETMBEGA1UE
CAwKQ2FsaWZvcm5pYTERMA8GA1UEBwwIU2FyYXRvZ2ExGDAWBgNVBAoMD0V4YW1w
bGUgQ29tcGFueTEUMBIGA1UECwwLRW5naW5lZXJpbmcxETAPBgNVBAMMCHVzZXIg
b25lMR8wHQYJKoZIhvcNAQkBFhB1c2VyMUBwaG9lYmUubWJwMIIBIjANBgkqhkiG
9w0BAQEFAAOCAQ8AMIIBCgKCAQEAv2Yrk8alpHqYrQbIzZfgnnLe942Gl25vgg1A
iYOTouh6aZF6pme00pkJFwGYmHnmNmHeZA0KZYj1WPXuSyq0ZOZxU2a6YjJVD9fY
KlSATosSs59PEbPyY+sVyfwJFiFwNIXjVMTQsAVWvZTvJDcKgUzmORw1pZ78ML7d
1XEpzVdBG2oK188jhtSO34Z80aRH8cIC4b6UaWX1mYtdoLGVyWlmTJSeu/bqBPcD
4v5V38no+wF+z81ji2F3VR2E+B+vKLacWJBigw0I+nxKDtqEpPxsiHe5BhQNPcDB
VQwLIZW4fuKjpdVSo1WB4iZi2afgommqhLsEBgEkzxexaMCsDwIDAQABo4HfMIHc
MAkGA1UdEwQCMAAwLAYJYIZIAYb4QgENBB8WHU9wZW5TU0wgR2VuZXJhdGVkIENl
cnRpZmljYXRlMB0GA1UdDgQWBBQEWWxk1poHssQAdx7IFf4NZChsqDCBgQYDVR0j
BHoweKFrpGkwZzELMAkGA1UEBhMCVVMxEzARBgNVBAgMCkNhbGlmb3JuaWExEjAQ
BgNVBAcMCVBhbG8gQWx0bzEPMA0GA1UECgwGVk1XYXJlMQ8wDQYDVQQLDAZaaW1i
cmExDTALBgNVBAMMBE15Q0GCCQCuo0Pp1SZ4xTANBgkqhkiG9w0BAQUFAAOCAQEA
L5F/jYdEh50BUvEWWkEt6HUko3S9EtZEkXQDBlMR89RQWyffCfwL/ZTrrTGjAtmJ
MCA1O5mgMkHQldfb2bYdk1KPlBAN9xSE+IOdxIsvY8ehwTSW+673QhMS49O2DmqA
sIaCKNTtrGVnqj9EkKI3Uf7DqlGEMfFdQscT2c7GH7Z/dnRYn8+5/vGpWK1LfID4
TbyLgava2+RZTfoOFJxoUej/ywvN/rRpKVJchQtSIWs6ARK0Om5GpHXmldW2N3Oq
S4HNis34Imsmr9ItlhHb7jS4meWS3bv9Xbi31C6HFeJAOo4K7MkNRtcZbQLWL191
9J3M/jIh9loRlZC1lSvkSw==
-----END CERTIFICATE-----
