Certificate:
    Data:
        Version: 3 (0x2)
        Serial Number: 2 (0x2)
        Signature Algorithm: sha1WithRSAEncryption
        Issuer: C=US, ST=California, L=Palo Alto, O=VMWare, OU=Zimbra, CN=MyCA
        Validity
            Not Before: Apr  1 04:12:56 2011 GMT
            Not After : Mar 31 04:12:56 2012 GMT
        Subject: C=US, ST=California, L=Saratoga, O=Example Company, OU=Engineering, CN=user one/emailAddress=user1-alias@phoebe.mbp
        Subject Public Key Info:
            Public Key Algorithm: rsaEncryption
                Public-Key: (2048 bit)
                Modulus:
                    00:b6:b1:e6:6f:68:f1:b1:92:ab:2e:3e:08:99:16:
                    7d:86:f2:a4:f6:25:ee:d9:49:71:90:62:bd:de:57:
                    3e:df:09:94:3b:ff:e7:10:60:27:50:f2:4c:10:97:
                    6d:d5:96:a8:4d:15:52:aa:3a:9f:d4:45:a6:b2:d3:
                    6a:10:c7:f1:5d:8a:66:b8:89:4c:4b:2c:b8:2c:40:
                    c4:6c:3d:1b:15:a4:f0:4d:f1:4c:8c:2f:b8:93:9a:
                    d9:60:2c:aa:dd:91:c1:e1:14:4b:f4:81:91:5c:f5:
                    5a:e2:b0:06:49:e4:52:aa:6b:0c:e1:d8:05:a4:c6:
                    d4:db:c3:fc:ef:9b:27:fd:28:72:ba:88:25:56:46:
                    43:1a:5a:2f:60:ec:95:3e:7b:45:0e:fa:6c:b4:ce:
                    11:cb:4a:41:69:79:c0:90:7d:f6:64:c1:95:d7:07:
                    f9:14:39:30:12:47:9b:c3:51:cb:77:9a:77:b1:2b:
                    bb:6d:96:b1:82:99:74:55:0c:46:f7:d8:18:77:94:
                    6e:0d:56:c2:68:2b:7b:36:ec:40:07:7e:c1:e6:68:
                    fe:2c:db:3d:f4:27:75:e1:41:98:51:2c:16:d0:43:
                    5e:06:a0:e1:93:16:07:8d:3c:71:6a:e9:6d:12:e3:
                    e0:c4:bb:14:42:3d:58:a8:06:f7:ef:30:0b:26:f9:
                    9d:2b
                Exponent: 65537 (0x10001)
        X509v3 extensions:
            X509v3 Basic Constraints: 
                CA:FALSE
            Netscape Comment: 
                OpenSSL Generated Certificate
            X509v3 Subject Key Identifier: 
                9F:CB:87:2A:FE:35:34:3C:F5:6B:23:AA:EB:7D:94:C6:71:27:FC:F4
            X509v3 Authority Key Identifier: 
                DirName:/C=US/ST=California/L=Palo Alto/O=VMWare/OU=Zimbra/CN=MyCA
                serial:AE:A3:43:E9:D5:26:78:C5

    Signature Algorithm: sha1WithRSAEncryption
        aa:76:28:3d:d6:24:b9:fb:aa:90:77:c2:10:76:80:31:7d:ed:
        82:08:a5:1a:f1:10:5b:d6:7c:e4:f3:8a:68:5f:2b:94:45:2d:
        54:da:ae:2c:f6:b7:84:9a:da:92:f7:3e:f5:cd:d5:0b:01:b5:
        aa:65:6c:5d:ef:f1:4d:dc:21:92:5c:75:b8:8c:14:41:e5:cb:
        0f:27:c9:09:3e:b6:6e:2d:32:6b:ee:b0:b4:7d:9b:20:c4:71:
        06:b6:34:49:f4:3c:f6:62:0f:f9:0e:6c:90:b6:7d:10:dc:36:
        c3:df:9c:07:2e:68:47:70:c1:df:1e:e1:a1:41:fc:f6:76:8a:
        01:c4:87:f8:44:c8:df:55:55:88:92:fa:21:6d:63:fa:0a:59:
        f7:76:36:6a:93:3b:77:e8:d8:59:aa:24:a3:f3:48:42:00:39:
        37:c6:9e:7c:6f:63:5c:d2:90:32:87:2d:5d:ae:4a:5e:2f:62:
        9e:bf:53:09:db:bf:61:06:60:c2:26:7e:1a:ec:d7:ed:2f:2d:
        21:92:70:03:5d:35:1d:2b:8e:4a:74:4e:b9:a3:3a:86:7c:e2:
        99:8b:9a:10:32:9c:0c:d6:4f:4b:4f:28:27:6f:7c:0d:a5:ce:
        69:2f:8c:7d:50:79:be:5e:72:9b:98:0f:55:a5:a2:21:ad:f6:
        1f:05:c2:7d
-----BEGIN CERTIFICATE-----
MIIEYjCCA0qgAwIBAgIBAjANBgkqhkiG9w0BAQUFADBnMQswCQYDVQQGEwJVUzET
MBEGA1UECAwKQ2FsaWZvcm5pYTESMBAGA1UEBwwJUGFsbyBBbHRvMQ8wDQYDVQQK
DAZWTVdhcmUxDzANBgNVBAsMBlppbWJyYTENMAsGA1UEAwwETXlDQTAeFw0xMTA0
MDEwNDEyNTZaFw0xMjAzMzEwNDEyNTZaMIGfMQswCQYDVQQGEwJVUzETMBEGA1UE
CAwKQ2FsaWZvcm5pYTERMA8GA1UEBwwIU2FyYXRvZ2ExGDAWBgNVBAoMD0V4YW1w
bGUgQ29tcGFueTEUMBIGA1UECwwLRW5naW5lZXJpbmcxETAPBgNVBAMMCHVzZXIg
b25lMSUwIwYJKoZIhvcNAQkBFhZ1c2VyMS1hbGlhc0BwaG9lYmUubWJwMIIBIjAN
BgkqhkiG9w0BAQEFAAOCAQ8AMIIBCgKCAQEAtrHmb2jxsZKrLj4ImRZ9hvKk9iXu
2UlxkGK93lc+3wmUO//nEGAnUPJMEJdt1ZaoTRVSqjqf1EWmstNqEMfxXYpmuIlM
Syy4LEDEbD0bFaTwTfFMjC+4k5rZYCyq3ZHB4RRL9IGRXPVa4rAGSeRSqmsM4dgF
pMbU28P875sn/ShyuoglVkZDGlovYOyVPntFDvpstM4Ry0pBaXnAkH32ZMGV1wf5
FDkwEkebw1HLd5p3sSu7bZaxgpl0VQxG99gYd5RuDVbCaCt7NuxAB37B5mj+LNs9
9Cd14UGYUSwW0ENeBqDhkxYHjTxxaultEuPgxLsUQj1YqAb37zALJvmdKwIDAQAB
o4HfMIHcMAkGA1UdEwQCMAAwLAYJYIZIAYb4QgENBB8WHU9wZW5TU0wgR2VuZXJh
dGVkIENlcnRpZmljYXRlMB0GA1UdDgQWBBSfy4cq/jU0PPVrI6rrfZTGcSf89DCB
gQYDVR0jBHoweKFrpGkwZzELMAkGA1UEBhMCVVMxEzARBgNVBAgMCkNhbGlmb3Ju
aWExEjAQBgNVBAcMCVBhbG8gQWx0bzEPMA0GA1UECgwGVk1XYXJlMQ8wDQYDVQQL
DAZaaW1icmExDTALBgNVBAMMBE15Q0GCCQCuo0Pp1SZ4xTANBgkqhkiG9w0BAQUF
AAOCAQEAqnYoPdYkufuqkHfCEHaAMX3tggilGvEQW9Z85POKaF8rlEUtVNquLPa3
hJrakvc+9c3VCwG1qmVsXe/xTdwhklx1uIwUQeXLDyfJCT62bi0ya+6wtH2bIMRx
BrY0SfQ89mIP+Q5skLZ9ENw2w9+cBy5oR3DB3x7hoUH89naKAcSH+ETI31VViJL6
IW1j+gpZ93Y2apM7d+jYWaoko/NIQgA5N8aefG9jXNKQMoctXa5KXi9inr9TCdu/
YQZgwiZ+GuzX7S8tIZJwA101HSuOSnROuaM6hnzimYuaEDKcDNZPS08oJ298DaXO
aS+MfVB5vl5ym5gPVaWiIa32HwXCfQ==
-----END CERTIFICATE-----
